; Function Attrs: mustprogress uwtable
define noundef i32 @_ZNK10open_spiel10backgammon15BackgammonState5boardEii(ptr nocapture noundef nonnull readonly align 8 dereferenceable(216) %0, i32 noundef %1, i32 noundef %2) local_unnamed_addr #4 align 2 personality ptr @__gxx_personality_v0 {
  %4 = alloca i32, align 4
  %5 = alloca i32, align 4
  %6 = alloca %"class.std::__cxx11::basic_string", align 8
  %7 = alloca i32, align 4
  %8 = alloca i32, align 4
  %9 = alloca i32, align 4
  %10 = alloca %"class.std::__cxx11::basic_string", align 8
  %11 = alloca i32, align 4
  %12 = icmp eq i32 %2, 100
  br i1 %12, label %13, label %16

13:                                               ; preds = %3
  %14 = getelementptr inbounds nuw i8, ptr %0, i64 120
  %15 = sext i32 %1 to i64
  br label %34

16:                                               ; preds = %3
  store i32 %2, ptr %4, align 4
  store i32 0, ptr %5, align 4
  %17 = icmp sgt i32 %2, -1
  br i1 %17, label %22, label %18

18:                                               ; preds = %16
  store i32 384, ptr %7, align 4
  call void @_ZN10open_spiel8internal11SpielStrCatIJRA140_KcRA2_S2_iS6_RA9_S2_RA5_S2_RA4_S2_RiRA7_S2_SD_EEENSt7__cxx1112basic_stringIcSt11char_traitsIcESaIcEEEDpOT_(ptr dead_on_unwind nonnull writable sret(%"class.std::__cxx11::basic_string") align 8 %6, ptr noundef nonnull align 1 dereferenceable(140) @.str.34, ptr noundef nonnull align 1 dereferenceable(2) @.str.35, ptr noundef nonnull align 4 dereferenceable(4) %7, ptr noundef nonnull align 1 dereferenceable(2) @.str.27, ptr noundef nonnull align 1 dereferenceable(9) @.str.48, ptr noundef nonnull align 1 dereferenceable(5) @.str.49, ptr noundef nonnull align 1 dereferenceable(4) @.str.38, ptr noundef nonnull align 4 dereferenceable(4) %4, ptr noundef nonnull align 1 dereferenceable(7) @.str.39, ptr noundef nonnull align 4 dereferenceable(4) %5)
  invoke void @_ZN10open_spiel15SpielFatalErrorERKNSt7__cxx1112basic_stringIcSt11char_traitsIcESaIcEEE(ptr noundef nonnull align 8 dereferenceable(32) %6) #29
          to label %19 unwind label %20

19:                                               ; preds = %18
  unreachable

20:                                               ; preds = %18
  %21 = landingpad { ptr, i32 }
          cleanup
  br label %37

22:                                               ; preds = %16
  store i32 %2, ptr %8, align 4
  store i32 24, ptr %9, align 4
  %23 = icmp ult i32 %2, 24
  br i1 %23, label %28, label %24

24:                                               ; preds = %22
  store i32 385, ptr %11, align 4
  call void @_ZN10open_spiel8internal11SpielStrCatIJRA140_KcRA2_S2_iS6_RA17_S2_RA5_S2_RA4_S2_RiRA16_S2_SD_EEENSt7__cxx1112basic_stringIcSt11char_traitsIcESaIcEEEDpOT_(ptr dead_on_unwind nonnull writable sret(%"class.std::__cxx11::basic_string") align 8 %10, ptr noundef nonnull align 1 dereferenceable(140) @.str.34, ptr noundef nonnull align 1 dereferenceable(2) @.str.35, ptr noundef nonnull align 4 dereferenceable(4) %11, ptr noundef nonnull align 1 dereferenceable(2) @.str.27, ptr noundef nonnull align 1 dereferenceable(17) @.str.50, ptr noundef nonnull align 1 dereferenceable(5) @.str.49, ptr noundef nonnull align 1 dereferenceable(4) @.str.38, ptr noundef nonnull align 4 dereferenceable(4) %8, ptr noundef nonnull align 1 dereferenceable(16) @.str.51, ptr noundef nonnull align 4 dereferenceable(4) %9)
  invoke void @_ZN10open_spiel15SpielFatalErrorERKNSt7__cxx1112basic_stringIcSt11char_traitsIcESaIcEEE(ptr noundef nonnull align 8 dereferenceable(32) %10) #29
          to label %25 unwind label %26

25:                                               ; preds = %24
  unreachable

26:                                               ; preds = %24
  %27 = landingpad { ptr, i32 }
          cleanup
  br label %37

28:                                               ; preds = %22
  %29 = getelementptr inbounds nuw i8, ptr %0, i64 168
  %30 = sext i32 %1 to i64
  %31 = load ptr, ptr %29, align 8
  %32 = getelementptr inbounds %"class.std::vector.6", ptr %31, i64 %30
  %33 = zext nneg i32 %2 to i64
  br label %34

34:                                               ; preds = %28, %13
  %.sink14 = phi ptr [ %32, %28 ], [ %14, %13 ]
  %.sink13 = phi i64 [ %33, %28 ], [ %15, %13 ]
  %35 = load ptr, ptr %.sink14, align 8
  %36 = getelementptr inbounds i32, ptr %35, i64 %.sink13
  %.010 = load i32, ptr %36, align 4
  ret i32 %.010

37:                                               ; preds = %26, %20
  %.sink = phi ptr [ %10, %26 ], [ %6, %20 ]
  %.pn = phi { ptr, i32 } [ %27, %26 ], [ %21, %20 ]
  call void @_ZNSt7__cxx1112basic_stringIcSt11char_traitsIcESaIcEED1Ev(ptr noundef nonnull align 8 dereferenceable(32) %.sink) #30
  resume { ptr, i32 } %.pn
}